target datalayout = "e-m:e-p270:32:32-p271:32:32-p272:64:64-i64:64-i128:128-f80:128-n8:16:32:64-S128"
target triple = "x86_64-pc-linux-gnu"

%struct._ir_insn = type { %struct.anon, %union.anon.5 }
%struct.anon = type { %union.anon, %union.anon.4 }
%union.anon = type { i32 }
%union.anon.4 = type { i32 }
%union.anon.5 = type { %union._ir_val }
%union._ir_val = type { double }
%struct.anon.0 = type { %union.anon.1, %union.anon.3 }
%union.anon.1 = type { i16 }
%union.anon.3 = type { i16 }
%struct.anon.2 = type { i8, i8 }
%struct._ir_ctx = type { ptr, i32, i32, i32, i32, i32, i32, i32, i32, i32, i32, %struct._ir_insn, ptr, ptr, ptr, i32, i32, i32, ptr, ptr, ptr, ptr, ptr, i32, i32, i64, i32, i32, i32, i64, i32, i32, i32, i32, ptr, ptr, ptr, ptr, ptr, ptr, %union.anon.13, ptr, i32, i32, i32, i64, i32, i32, i32, ptr, ptr, ptr, ptr, %struct._ir_strtab, [61 x i32], [14 x i32] }
%union.anon.13 = type { ptr }
%struct._ir_strtab = type { ptr, i32, i32, i32, i32, ptr, i32, i32 }
%struct.anon.6 = type { i32, i32 }

; Function Attrs: nounwind uwtable
define internal void @ir_grow_top(ptr noundef %0) #0 {
  %2 = alloca ptr, align 8
  %3 = alloca ptr, align 8
  store ptr %0, ptr %2, align 8
  %4 = load ptr, ptr %2, align 8
  %5 = getelementptr inbounds %struct._ir_ctx, ptr %4, i32 0, i32 0
  %6 = load ptr, ptr %5, align 8
  %7 = load ptr, ptr %2, align 8
  %8 = getelementptr inbounds %struct._ir_ctx, ptr %7, i32 0, i32 4
  %9 = load i32, ptr %8, align 4
  %10 = sext i32 %9 to i64
  %11 = sub i64 0, %10
  %12 = getelementptr inbounds %struct._ir_insn, ptr %6, i64 %11
  store ptr %12, ptr %3, align 8
  %13 = load ptr, ptr %2, align 8
  %14 = getelementptr inbounds %struct._ir_ctx, ptr %13, i32 0, i32 2
  %15 = load i32, ptr %14, align 4
  %16 = icmp slt i32 %15, 4096
  br i1 %16, label %17, label %22

17:                                               ; preds = %1
  %18 = load ptr, ptr %2, align 8
  %19 = getelementptr inbounds %struct._ir_ctx, ptr %18, i32 0, i32 2
  %20 = load i32, ptr %19, align 4
  %21 = mul nsw i32 %20, 2
  store i32 %21, ptr %19, align 4
  br label %36

22:                                               ; preds = %1
  %23 = load ptr, ptr %2, align 8
  %24 = getelementptr inbounds %struct._ir_ctx, ptr %23, i32 0, i32 2
  %25 = load i32, ptr %24, align 4
  %26 = icmp slt i32 %25, 8192
  br i1 %26, label %27, label %30

27:                                               ; preds = %22
  %28 = load ptr, ptr %2, align 8
  %29 = getelementptr inbounds %struct._ir_ctx, ptr %28, i32 0, i32 2
  store i32 8192, ptr %29, align 4
  br label %35

30:                                               ; preds = %22
  %31 = load ptr, ptr %2, align 8
  %32 = getelementptr inbounds %struct._ir_ctx, ptr %31, i32 0, i32 2
  %33 = load i32, ptr %32, align 4
  %34 = add nsw i32 %33, 4096
  store i32 %34, ptr %32, align 4
  br label %35

35:                                               ; preds = %30, %27
  br label %36

36:                                               ; preds = %35, %17
  %37 = load ptr, ptr %3, align 8
  %38 = load ptr, ptr %2, align 8
  %39 = getelementptr inbounds %struct._ir_ctx, ptr %38, i32 0, i32 4
  %40 = load i32, ptr %39, align 4
  %41 = load ptr, ptr %2, align 8
  %42 = getelementptr inbounds %struct._ir_ctx, ptr %41, i32 0, i32 2
  %43 = load i32, ptr %42, align 4
  %44 = add nsw i32 %40, %43
  %45 = sext i32 %44 to i64
  %46 = mul i64 %45, 16
  %47 = call ptr @_erealloc(ptr noundef %37, i64 noundef %46) #14
  store ptr %47, ptr %3, align 8
  %48 = load ptr, ptr %3, align 8
  %49 = load ptr, ptr %2, align 8
  %50 = getelementptr inbounds %struct._ir_ctx, ptr %49, i32 0, i32 4
  %51 = load i32, ptr %50, align 4
  %52 = sext i32 %51 to i64
  %53 = getelementptr inbounds %struct._ir_insn, ptr %48, i64 %52
  %54 = load ptr, ptr %2, align 8
  %55 = getelementptr inbounds %struct._ir_ctx, ptr %54, i32 0, i32 0
  store ptr %53, ptr %55, align 8
  ret void
}

; Function Attrs: nounwind uwtable
define internal i32 @ir_next_insn(ptr noundef %0) #0 {
  %2 = alloca ptr, align 8
  %3 = alloca i32, align 4
  store ptr %0, ptr %2, align 8
  %4 = load ptr, ptr %2, align 8
  %5 = getelementptr inbounds %struct._ir_ctx, ptr %4, i32 0, i32 1
  %6 = load i32, ptr %5, align 8
  store i32 %6, ptr %3, align 4
  %7 = load i32, ptr %3, align 4
  %8 = load ptr, ptr %2, align 8
  %9 = getelementptr inbounds %struct._ir_ctx, ptr %8, i32 0, i32 2
  %10 = load i32, ptr %9, align 4
  %11 = icmp sge i32 %7, %10
  %12 = xor i1 %11, true
  %13 = xor i1 %12, true
  %14 = zext i1 %13 to i32
  %15 = sext i32 %14 to i64
  %16 = icmp ne i64 %15, 0
  br i1 %16, label %17, label %19

17:                                               ; preds = %1
  %18 = load ptr, ptr %2, align 8
  call void @ir_grow_top(ptr noundef %18)
  br label %19

19:                                               ; preds = %17, %1
  %20 = load i32, ptr %3, align 4
  %21 = add nsw i32 %20, 1
  %22 = load ptr, ptr %2, align 8
  %23 = getelementptr inbounds %struct._ir_ctx, ptr %22, i32 0, i32 1
  store i32 %21, ptr %23, align 8
  %24 = load i32, ptr %3, align 4
  ret i32 %24
}

; Function Attrs: nounwind uwtable
define hidden i32 @ir_emit(ptr noundef %0, i32 noundef %1, i32 noundef %2, i32 noundef %3, i32 noundef %4) #0 {
  %6 = alloca ptr, align 8
  %7 = alloca i32, align 4
  %8 = alloca i32, align 4
  %9 = alloca i32, align 4
  %10 = alloca i32, align 4
  %11 = alloca i32, align 4
  %12 = alloca ptr, align 8
  store ptr %0, ptr %6, align 8
  store i32 %1, ptr %7, align 4
  store i32 %2, ptr %8, align 4
  store i32 %3, ptr %9, align 4
  store i32 %4, ptr %10, align 4
  %13 = load ptr, ptr %6, align 8
  %14 = call i32 @ir_next_insn(ptr noundef %13)
  store i32 %14, ptr %11, align 4
  %15 = load ptr, ptr %6, align 8
  %16 = getelementptr inbounds %struct._ir_ctx, ptr %15, i32 0, i32 0
  %17 = load ptr, ptr %16, align 8
  %18 = load i32, ptr %11, align 4
  %19 = sext i32 %18 to i64
  %20 = getelementptr inbounds %struct._ir_insn, ptr %17, i64 %19
  store ptr %20, ptr %12, align 8
  %21 = load i32, ptr %7, align 4
  %22 = load ptr, ptr %12, align 8
  %23 = getelementptr inbounds %struct._ir_insn, ptr %22, i32 0, i32 0
  %24 = getelementptr inbounds %struct.anon, ptr %23, i32 0, i32 0
  store i32 %21, ptr %24, align 8
  %25 = load i32, ptr %8, align 4
  %26 = load ptr, ptr %12, align 8
  %27 = getelementptr inbounds %struct._ir_insn, ptr %26, i32 0, i32 0
  %28 = getelementptr inbounds %struct.anon, ptr %27, i32 0, i32 1
  store i32 %25, ptr %28, align 4
  %29 = load i32, ptr %9, align 4
  %30 = load ptr, ptr %12, align 8
  %31 = getelementptr inbounds %struct._ir_insn, ptr %30, i32 0, i32 1
  %32 = getelementptr inbounds %struct.anon.6, ptr %31, i32 0, i32 0
  store i32 %29, ptr %32, align 8
  %33 = load i32, ptr %10, align 4
  %34 = load ptr, ptr %12, align 8
  %35 = getelementptr inbounds %struct._ir_insn, ptr %34, i32 0, i32 1
  %36 = getelementptr inbounds %struct.anon.6, ptr %35, i32 0, i32 1
  store i32 %33, ptr %36, align 4
  %37 = load i32, ptr %11, align 4
  ret i32 %37
}

; Function Attrs: nounwind uwtable
define hidden i32 @ir_emit3(ptr noundef %0, i32 noundef %1, i32 noundef %2, i32 noundef %3, i32 noundef %4) #0 {
  %6 = alloca ptr, align 8
  %7 = alloca i32, align 4
  %8 = alloca i32, align 4
  %9 = alloca i32, align 4
  %10 = alloca i32, align 4
  store ptr %0, ptr %6, align 8
  store i32 %1, ptr %7, align 4
  store i32 %2, ptr %8, align 4
  store i32 %3, ptr %9, align 4
  store i32 %4, ptr %10, align 4
  %11 = load ptr, ptr %6, align 8
  %12 = load i32, ptr %7, align 4
  %13 = load i32, ptr %8, align 4
  %14 = load i32, ptr %9, align 4
  %15 = load i32, ptr %10, align 4
  %16 = call i32 @ir_emit(ptr noundef %11, i32 noundef %12, i32 noundef %13, i32 noundef %14, i32 noundef %15)
  ret i32 %16
}

; Function Attrs: nounwind uwtable
define hidden void @_ir_GUARD_NOT(ptr noundef %0, i32 noundef %1, i32 noundef %2) #0 {
  %4 = alloca i1, align 1
  %5 = alloca ptr, align 8
  %6 = alloca i1, align 1
  %7 = alloca ptr, align 8
  %8 = alloca i32, align 4
  %9 = alloca ptr, align 8
  %10 = alloca i32, align 4
  %11 = alloca i32, align 4
  %12 = alloca ptr, align 8
  %13 = alloca i32, align 4
  %14 = alloca ptr, align 8
  store ptr %0, ptr %9, align 8
  store i32 %1, ptr %10, align 4
  store i32 %2, ptr %11, align 4
  %15 = load i32, ptr %10, align 4
  %16 = icmp slt i32 %15, 0
  br i1 %16, label %17, label %77

17:                                               ; preds = %3
  %18 = load ptr, ptr %9, align 8
  %19 = load i32, ptr %10, align 4
  store ptr %18, ptr %7, align 8
  store i32 %19, ptr %8, align 4
  %20 = load i32, ptr %8, align 4
  %21 = icmp eq i32 %20, -3
  br i1 %21, label %22, label %23

22:                                               ; preds = %17
  store i1 true, ptr %6, align 1
  br label %73

23:                                               ; preds = %17
  %24 = load i32, ptr %8, align 4
  %25 = icmp eq i32 %24, -2
  br i1 %25, label %26, label %27

26:                                               ; preds = %23
  store i1 false, ptr %6, align 1
  br label %73

27:                                               ; preds = %23
  %28 = load ptr, ptr %7, align 8
  %29 = load ptr, ptr %28, align 8
  %30 = load i32, ptr %8, align 4
  %31 = sext i32 %30 to i64
  %32 = getelementptr inbounds %struct._ir_insn, ptr %29, i64 %31
  store ptr %32, ptr %5, align 8
  %33 = load ptr, ptr %5, align 8
  %34 = getelementptr inbounds %struct.anon.2, ptr %33, i32 0, i32 1
  %35 = load i8, ptr %34, align 1
  %36 = zext i8 %35 to i32
  %37 = icmp eq i32 %36, 1
  br i1 %37, label %38, label %43

38:                                               ; preds = %27
  %39 = load ptr, ptr %5, align 8
  %40 = getelementptr inbounds %struct._ir_insn, ptr %39, i32 0, i32 1
  %41 = load i8, ptr %40, align 8
  %42 = trunc i8 %41 to i1
  store i1 %42, ptr %4, align 1
  br label %71

43:                                               ; preds = %27
  %44 = load ptr, ptr %5, align 8
  %45 = getelementptr inbounds %struct.anon.2, ptr %44, i32 0, i32 1
  %46 = load i8, ptr %45, align 1
  %47 = zext i8 %46 to i32
  %48 = icmp slt i32 %47, 12
  br i1 %48, label %49, label %54

49:                                               ; preds = %43
  %50 = load ptr, ptr %5, align 8
  %51 = getelementptr inbounds %struct._ir_insn, ptr %50, i32 0, i32 1
  %52 = load i64, ptr %51, align 8
  %53 = icmp ne i64 %52, 0
  store i1 %53, ptr %4, align 1
  br label %71

54:                                               ; preds = %43
  %55 = load ptr, ptr %5, align 8
  %56 = getelementptr inbounds %struct.anon.2, ptr %55, i32 0, i32 1
  %57 = load i8, ptr %56, align 1
  %58 = zext i8 %57 to i32
  %59 = icmp eq i32 %58, 12
  br i1 %59, label %60, label %65

60:                                               ; preds = %54
  %61 = load ptr, ptr %5, align 8
  %62 = getelementptr inbounds %struct._ir_insn, ptr %61, i32 0, i32 1
  %63 = load double, ptr %62, align 8
  %64 = fcmp une double %63, 0.000000e+00
  store i1 %64, ptr %4, align 1
  br label %71

65:                                               ; preds = %54
  %66 = load ptr, ptr %5, align 8
  %67 = getelementptr inbounds %struct._ir_insn, ptr %66, i32 0, i32 1
  %68 = load float, ptr %67, align 8
  %69 = fpext float %68 to double
  %70 = fcmp une double %69, 0.000000e+00
  store i1 %70, ptr %4, align 1
  br label %71

71:                                               ; preds = %65, %60, %49, %38
  %72 = load i1, ptr %4, align 1
  store i1 %72, ptr %6, align 1
  br label %73

73:                                               ; preds = %71, %26, %22
  %74 = load i1, ptr %6, align 1
  br i1 %74, label %76, label %75

75:                                               ; preds = %73
  br label %225

76:                                               ; preds = %73
  store i32 -3, ptr %10, align 4
  br label %204

77:                                               ; preds = %3
  store ptr null, ptr %12, align 8
  %78 = load ptr, ptr %9, align 8
  %79 = getelementptr inbounds %struct._ir_ctx, ptr %78, i32 0, i32 40
  %80 = load i32, ptr %79, align 8
  store i32 %80, ptr %13, align 4
  br label %81

81:                                               ; preds = %197, %77
  %82 = load i32, ptr %13, align 4
  %83 = load i32, ptr %10, align 4
  %84 = icmp sgt i32 %82, %83
  br i1 %84, label %85, label %203

85:                                               ; preds = %81
  %86 = load ptr, ptr %9, align 8
  %87 = getelementptr inbounds %struct._ir_ctx, ptr %86, i32 0, i32 0
  %88 = load ptr, ptr %87, align 8
  %89 = load i32, ptr %13, align 4
  %90 = sext i32 %89 to i64
  %91 = getelementptr inbounds %struct._ir_insn, ptr %88, i64 %90
  store ptr %91, ptr %14, align 8
  %92 = load ptr, ptr %14, align 8
  %93 = getelementptr inbounds %struct._ir_insn, ptr %92, i32 0, i32 0
  %94 = getelementptr inbounds %struct.anon, ptr %93, i32 0, i32 0
  %95 = getelementptr inbounds %struct.anon.0, ptr %94, i32 0, i32 0
  %96 = getelementptr inbounds %struct.anon.2, ptr %95, i32 0, i32 0
  %97 = load i8, ptr %96, align 8
  %98 = zext i8 %97 to i32
  %99 = icmp eq i32 %98, 87
  br i1 %99, label %100, label %109

100:                                              ; preds = %85
  %101 = load ptr, ptr %14, align 8
  %102 = getelementptr inbounds %struct._ir_insn, ptr %101, i32 0, i32 1
  %103 = getelementptr inbounds %struct.anon.6, ptr %102, i32 0, i32 0
  %104 = load i32, ptr %103, align 8
  %105 = load i32, ptr %10, align 4
  %106 = icmp eq i32 %104, %105
  br i1 %106, label %107, label %108

107:                                              ; preds = %100
  br label %225

108:                                              ; preds = %100
  br label %197

109:                                              ; preds = %85
  %110 = load ptr, ptr %14, align 8
  %111 = getelementptr inbounds %struct._ir_insn, ptr %110, i32 0, i32 0
  %112 = getelementptr inbounds %struct.anon, ptr %111, i32 0, i32 0
  %113 = getelementptr inbounds %struct.anon.0, ptr %112, i32 0, i32 0
  %114 = getelementptr inbounds %struct.anon.2, ptr %113, i32 0, i32 0
  %115 = load i8, ptr %114, align 8
  %116 = zext i8 %115 to i32
  %117 = icmp eq i32 %116, 86
  br i1 %117, label %118, label %127

118:                                              ; preds = %109
  %119 = load ptr, ptr %14, align 8
  %120 = getelementptr inbounds %struct._ir_insn, ptr %119, i32 0, i32 1
  %121 = getelementptr inbounds %struct.anon.6, ptr %120, i32 0, i32 0
  %122 = load i32, ptr %121, align 8
  %123 = load i32, ptr %10, align 4
  %124 = icmp eq i32 %122, %123
  br i1 %124, label %125, label %126

125:                                              ; preds = %118
  store i32 -3, ptr %10, align 4
  br label %203

126:                                              ; preds = %118
  br label %196

127:                                              ; preds = %109
  %128 = load ptr, ptr %14, align 8
  %129 = getelementptr inbounds %struct._ir_insn, ptr %128, i32 0, i32 0
  %130 = getelementptr inbounds %struct.anon, ptr %129, i32 0, i32 0
  %131 = getelementptr inbounds %struct.anon.0, ptr %130, i32 0, i32 0
  %132 = getelementptr inbounds %struct.anon.2, ptr %131, i32 0, i32 0
  %133 = load i8, ptr %132, align 8
  %134 = zext i8 %133 to i32
  %135 = icmp eq i32 %134, 100
  br i1 %135, label %136, label %166

136:                                              ; preds = %127
  %137 = load ptr, ptr %14, align 8
  %138 = getelementptr inbounds %struct._ir_insn, ptr %137, i32 0, i32 1
  %139 = getelementptr inbounds %struct.anon.6, ptr %138, i32 0, i32 0
  %140 = load i32, ptr %139, align 8
  %141 = load i32, ptr %10, align 4
  %142 = icmp eq i32 %140, %141
  br i1 %142, label %143, label %165

143:                                              ; preds = %136
  %144 = load ptr, ptr %12, align 8
  %145 = getelementptr inbounds %struct._ir_insn, ptr %144, i32 0, i32 0
  %146 = getelementptr inbounds %struct.anon, ptr %145, i32 0, i32 0
  %147 = getelementptr inbounds %struct.anon.0, ptr %146, i32 0, i32 0
  %148 = getelementptr inbounds %struct.anon.2, ptr %147, i32 0, i32 0
  %149 = load i8, ptr %148, align 8
  %150 = zext i8 %149 to i32
  %151 = icmp eq i32 %150, 92
  br i1 %151, label %152, label %153

152:                                              ; preds = %143
  store i32 -3, ptr %10, align 4
  br label %203

153:                                              ; preds = %143
  %154 = load ptr, ptr %12, align 8
  %155 = getelementptr inbounds %struct._ir_insn, ptr %154, i32 0, i32 0
  %156 = getelementptr inbounds %struct.anon, ptr %155, i32 0, i32 0
  %157 = getelementptr inbounds %struct.anon.0, ptr %156, i32 0, i32 0
  %158 = getelementptr inbounds %struct.anon.2, ptr %157, i32 0, i32 0
  %159 = load i8, ptr %158, align 8
  %160 = zext i8 %159 to i32
  %161 = icmp eq i32 %160, 93
  br i1 %161, label %162, label %163

162:                                              ; preds = %153
  br label %225

163:                                              ; preds = %153
  br label %164

164:                                              ; preds = %163
  br label %165

165:                                              ; preds = %164, %136
  br label %195

166:                                              ; preds = %127
  %167 = load ptr, ptr %14, align 8
  %168 = getelementptr inbounds %struct._ir_insn, ptr %167, i32 0, i32 0
  %169 = getelementptr inbounds %struct.anon, ptr %168, i32 0, i32 0
  %170 = getelementptr inbounds %struct.anon.0, ptr %169, i32 0, i32 0
  %171 = getelementptr inbounds %struct.anon.2, ptr %170, i32 0, i32 0
  %172 = load i8, ptr %171, align 8
  %173 = zext i8 %172 to i32
  %174 = icmp eq i32 %173, 89
  br i1 %174, label %193, label %175

175:                                              ; preds = %166
  %176 = load ptr, ptr %14, align 8
  %177 = getelementptr inbounds %struct._ir_insn, ptr %176, i32 0, i32 0
  %178 = getelementptr inbounds %struct.anon, ptr %177, i32 0, i32 0
  %179 = getelementptr inbounds %struct.anon.0, ptr %178, i32 0, i32 0
  %180 = getelementptr inbounds %struct.anon.2, ptr %179, i32 0, i32 0
  %181 = load i8, ptr %180, align 8
  %182 = zext i8 %181 to i32
  %183 = icmp eq i32 %182, 96
  br i1 %183, label %193, label %184

184:                                              ; preds = %175
  %185 = load ptr, ptr %14, align 8
  %186 = getelementptr inbounds %struct._ir_insn, ptr %185, i32 0, i32 0
  %187 = getelementptr inbounds %struct.anon, ptr %186, i32 0, i32 0
  %188 = getelementptr inbounds %struct.anon.0, ptr %187, i32 0, i32 0
  %189 = getelementptr inbounds %struct.anon.2, ptr %188, i32 0, i32 0
  %190 = load i8, ptr %189, align 8
  %191 = zext i8 %190 to i32
  %192 = icmp eq i32 %191, 97
  br i1 %192, label %193, label %194

193:                                              ; preds = %184, %175, %166
  br label %203

194:                                              ; preds = %184
  br label %195

195:                                              ; preds = %194, %165
  br label %196

196:                                              ; preds = %195, %126
  br label %197

197:                                              ; preds = %196, %108
  %198 = load ptr, ptr %14, align 8
  store ptr %198, ptr %12, align 8
  %199 = load ptr, ptr %14, align 8
  %200 = getelementptr inbounds %struct._ir_insn, ptr %199, i32 0, i32 0
  %201 = getelementptr inbounds %struct.anon, ptr %200, i32 0, i32 1
  %202 = load i32, ptr %201, align 4
  store i32 %202, ptr %13, align 4
  br label %81

203:                                              ; preds = %193, %152, %125, %81
  br label %204

204:                                              ; preds = %203, %76
  %205 = load ptr, ptr %9, align 8
  %206 = getelementptr inbounds %struct._ir_ctx, ptr %205, i32 0, i32 41
  %207 = load ptr, ptr %206, align 8
  %208 = icmp ne ptr %207, null
  br i1 %208, label %209, label %215

209:                                              ; preds = %204
  %210 = load ptr, ptr %9, align 8
  %211 = getelementptr inbounds %struct._ir_ctx, ptr %210, i32 0, i32 41
  %212 = load ptr, ptr %211, align 8
  %213 = load ptr, ptr %9, align 8
  %214 = load i32, ptr %11, align 4
  call void %212(ptr noundef %213, i32 noundef %214)
  br label %215

215:                                              ; preds = %209, %204
  %216 = load ptr, ptr %9, align 8
  %217 = load ptr, ptr %9, align 8
  %218 = getelementptr inbounds %struct._ir_ctx, ptr %217, i32 0, i32 40
  %219 = load i32, ptr %218, align 8
  %220 = load i32, ptr %10, align 4
  %221 = load i32, ptr %11, align 4
  %222 = call i32 @ir_emit3(ptr noundef %216, i32 noundef 87, i32 noundef %219, i32 noundef %220, i32 noundef %221)
  %223 = load ptr, ptr %9, align 8
  %224 = getelementptr inbounds %struct._ir_ctx, ptr %223, i32 0, i32 40
  store i32 %222, ptr %224, align 8
  br label %225

225:                                              ; preds = %215, %162, %107, %75
  ret void
}