; Function Attrs: nounwind uwtable
define hidden void @_ir_GUARD_NOT(ptr noundef %0, i32 noundef %1, i32 noundef %2) local_unnamed_addr #0 {
  %4 = icmp slt i32 %1, 0
  br i1 %4, label %5, label %31

5:                                                ; preds = %3
  switch i32 %1, label %6 [
    i32 -3, label %.critedge55
    i32 -2, label %.critedge
  ]

6:                                                ; preds = %5
  %7 = load ptr, ptr %0, align 8
  %8 = sext i32 %1 to i64
  %9 = getelementptr inbounds %struct._ir_insn, ptr %7, i64 %8
  %10 = getelementptr inbounds i8, ptr %9, i64 1
  %11 = load i8, ptr %10, align 1
  %12 = icmp eq i8 %11, 1
  br i1 %12, label %13, label %17

13:                                               ; preds = %6
  %14 = getelementptr inbounds i8, ptr %9, i64 8
  %15 = load i8, ptr %14, align 8
  %16 = and i8 %15, 1
  %.not57 = icmp eq i8 %16, 0
  br i1 %.not57, label %.critedge, label %.critedge55

17:                                               ; preds = %6
  %18 = icmp ult i8 %11, 12
  br i1 %18, label %19, label %22

19:                                               ; preds = %17
  %20 = getelementptr inbounds i8, ptr %9, i64 8
  %21 = load i64, ptr %20, align 8
  %.not56 = icmp eq i64 %21, 0
  br i1 %.not56, label %.critedge, label %.critedge55

22:                                               ; preds = %17
  %23 = icmp eq i8 %11, 12
  %24 = getelementptr inbounds i8, ptr %9, i64 8
  br i1 %23, label %25, label %28

25:                                               ; preds = %22
  %26 = load double, ptr %24, align 8
  %27 = fcmp une double %26, 0.000000e+00
  br i1 %27, label %.critedge55, label %.critedge

28:                                               ; preds = %22
  %29 = load float, ptr %24, align 8
  %30 = fcmp une float %29, 0.000000e+00
  br i1 %30, label %.critedge55, label %.critedge

31:                                               ; preds = %3
  %32 = getelementptr inbounds i8, ptr %0, i64 248
  %.04558 = load i32, ptr %32, align 4
  %33 = icmp sgt i32 %.04558, %1
  br i1 %33, label %.lr.ph, label %.critedge55

.lr.ph:                                           ; preds = %31
  %34 = load ptr, ptr %0, align 8
  br label %35

35:                                               ; preds = %.lr.ph, %53
  %.04560 = phi i32 [ %.04558, %.lr.ph ], [ %.045, %53 ]
  %.04659 = phi ptr [ null, %.lr.ph ], [ %37, %53 ]
  %36 = zext nneg i32 %.04560 to i64
  %37 = getelementptr inbounds %struct._ir_insn, ptr %34, i64 %36
  %38 = load i8, ptr %37, align 8
  switch i8 %38, label %53 [
    i8 87, label %39
    i8 86, label %43
    i8 100, label %47
    i8 89, label %.critedge55
    i8 96, label %.critedge55
    i8 97, label %.critedge55
  ]

39:                                               ; preds = %35
  %40 = getelementptr inbounds i8, ptr %37, i64 8
  %41 = load i32, ptr %40, align 8
  %42 = icmp eq i32 %41, %1
  br i1 %42, label %.critedge, label %53

43:                                               ; preds = %35
  %44 = getelementptr inbounds i8, ptr %37, i64 8
  %45 = load i32, ptr %44, align 8
  %46 = icmp eq i32 %45, %1
  br i1 %46, label %.critedge55, label %53

47:                                               ; preds = %35
  %48 = getelementptr inbounds i8, ptr %37, i64 8
  %49 = load i32, ptr %48, align 8
  %50 = icmp eq i32 %49, %1
  br i1 %50, label %51, label %53

51:                                               ; preds = %47
  %52 = load i8, ptr %.04659, align 8
  switch i8 %52, label %53 [
    i8 92, label %.critedge55
    i8 93, label %.critedge
  ]

53:                                               ; preds = %35, %51, %43, %47, %39
  %54 = getelementptr inbounds i8, ptr %37, i64 4
  %.045 = load i32, ptr %54, align 4
  %55 = icmp sgt i32 %.045, %1
  br i1 %55, label %35, label %.critedge55

.critedge55:                                      ; preds = %53, %43, %51, %35, %35, %35, %31, %25, %19, %13, %5, %28
  %.048 = phi i32 [ -3, %28 ], [ %1, %5 ], [ -3, %13 ], [ -3, %19 ], [ -3, %25 ], [ %1, %31 ], [ %1, %53 ], [ -3, %43 ], [ -3, %51 ], [ %1, %35 ], [ %1, %35 ], [ %1, %35 ]
  %56 = getelementptr inbounds i8, ptr %0, i64 256
  %57 = load ptr, ptr %56, align 8
  %.not = icmp eq ptr %57, null
  br i1 %.not, label %59, label %58

58:                                               ; preds = %.critedge55
  tail call void %57(ptr noundef nonnull %0, i32 noundef %2) #20
  br label %59

59:                                               ; preds = %58, %.critedge55
  %60 = getelementptr inbounds i8, ptr %0, i64 248
  %61 = load i32, ptr %60, align 8
  %62 = getelementptr inbounds i8, ptr %0, i64 8
  %63 = load i32, ptr %62, align 8
  %64 = getelementptr inbounds i8, ptr %0, i64 12
  %65 = load i32, ptr %64, align 4
  %.not.i.i.i = icmp slt i32 %63, %65
  %.pre.i.i = load ptr, ptr %0, align 8
  br i1 %.not.i.i.i, label %ir_emit3.exit, label %66

66:                                               ; preds = %59
  %67 = getelementptr inbounds i8, ptr %0, i64 20
  %68 = load i32, ptr %67, align 4
  %69 = icmp slt i32 %65, 4096
  %70 = shl nsw i32 %65, 1
  %71 = icmp ult i32 %65, 8192
  %72 = add nuw nsw i32 %65, 4096
  %spec.select.i.i.i.i = select i1 %71, i32 8192, i32 %72
  %.sink.i.i.i.i = select i1 %69, i32 %70, i32 %spec.select.i.i.i.i
  store i32 %.sink.i.i.i.i, ptr %64, align 4
  %73 = sext i32 %68 to i64
  %74 = sub nsw i64 0, %73
  %75 = getelementptr inbounds %struct._ir_insn, ptr %.pre.i.i, i64 %74
  %76 = add nsw i32 %68, %.sink.i.i.i.i
  %77 = sext i32 %76 to i64
  %78 = shl nsw i64 %77, 4
  %79 = tail call ptr @_erealloc(ptr noundef %75, i64 noundef %78) #24
  %80 = load i32, ptr %67, align 4
  %81 = sext i32 %80 to i64
  %82 = getelementptr inbounds %struct._ir_insn, ptr %79, i64 %81
  store ptr %82, ptr %0, align 8
  br label %ir_emit3.exit

ir_emit3.exit:                                    ; preds = %59, %66
  %83 = phi ptr [ %.pre.i.i, %59 ], [ %82, %66 ]
  %84 = add nsw i32 %63, 1
  store i32 %84, ptr %62, align 8
  %85 = sext i32 %63 to i64
  %86 = getelementptr inbounds %struct._ir_insn, ptr %83, i64 %85
  store i32 87, ptr %86, align 8
  %87 = getelementptr inbounds i8, ptr %86, i64 4
  store i32 %61, ptr %87, align 4
  %88 = getelementptr inbounds i8, ptr %86, i64 8
  store i32 %.048, ptr %88, align 8
  %89 = getelementptr inbounds i8, ptr %86, i64 12
  store i32 %2, ptr %89, align 4
  store i32 %63, ptr %60, align 8
  br label %.critedge

.critedge:                                        ; preds = %51, %39, %25, %19, %13, %5, %28, %ir_emit3.exit
  ret void
}